	.file	"test.c"
	.text
	.local	yy_buffer_stack_top
	.comm	yy_buffer_stack_top,8,8
	.local	yy_buffer_stack_max
	.comm	yy_buffer_stack_max,8,8
	.local	yy_buffer_stack
	.comm	yy_buffer_stack,8,8
	.local	yy_hold_char
	.comm	yy_hold_char,1,1
	.local	yy_n_chars
	.comm	yy_n_chars,4,4
	.comm	yyleng,4,4
	.local	yy_c_buf_p
	.comm	yy_c_buf_p,8,8
	.local	yy_init
	.comm	yy_init,4,4
	.local	yy_start
	.comm	yy_start,4,4
	.local	yy_did_buffer_switch_on_eof
	.comm	yy_did_buffer_switch_on_eof,4,4
	.globl	yyin
	.bss
	.align 8
	.type	yyin, @object
	.size	yyin, 8
yyin:
	.zero	8
	.globl	yyout
	.align 8
	.type	yyout, @object
	.size	yyout, 8
yyout:
	.zero	8
	.globl	yylineno
	.data
	.align 4
	.type	yylineno, @object
	.size	yylineno, 4
yylineno:
	.long	1
	.section	.rodata
	.align 32
	.type	yy_accept, @object
	.size	yy_accept, 90
yy_accept:
	.value	0
	.value	0
	.value	0
	.value	10
	.value	8
	.value	7
	.value	7
	.value	5
	.value	1
	.value	4
	.value	4
	.value	4
	.value	4
	.value	4
	.value	4
	.value	4
	.value	8
	.value	7
	.value	2
	.value	1
	.value	4
	.value	4
	.value	4
	.value	4
	.value	3
	.value	4
	.value	4
	.value	0
	.value	6
	.value	2
	.value	4
	.value	4
	.value	4
	.value	4
	.value	4
	.value	4
	.value	4
	.value	4
	.value	4
	.value	4
	.value	4
	.value	4
	.value	4
	.value	4
	.value	0
	.align 32
	.type	yy_ec, @object
	.size	yy_ec, 1024
yy_ec:
	.long	0
	.long	1
	.long	1
	.long	1
	.long	1
	.long	1
	.long	1
	.long	1
	.long	1
	.long	2
	.long	3
	.long	1
	.long	1
	.long	1
	.long	1
	.long	1
	.long	1
	.long	1
	.long	1
	.long	1
	.long	1
	.long	1
	.long	1
	.long	1
	.long	1
	.long	1
	.long	1
	.long	1
	.long	1
	.long	1
	.long	1
	.long	1
	.long	2
	.long	1
	.long	1
	.long	1
	.long	1
	.long	1
	.long	1
	.long	1
	.long	1
	.long	1
	.long	4
	.long	5
	.long	1
	.long	6
	.long	7
	.long	8
	.long	9
	.long	9
	.long	9
	.long	9
	.long	9
	.long	9
	.long	9
	.long	9
	.long	9
	.long	9
	.long	1
	.long	1
	.long	1
	.long	1
	.long	1
	.long	1
	.long	1
	.long	1
	.long	1
	.long	1
	.long	1
	.long	1
	.long	1
	.long	1
	.long	1
	.long	1
	.long	1
	.long	1
	.long	1
	.long	1
	.long	1
	.long	1
	.long	1
	.long	1
	.long	1
	.long	1
	.long	1
	.long	1
	.long	1
	.long	1
	.long	1
	.long	1
	.long	1
	.long	1
	.long	1
	.long	1
	.long	1
	.long	1
	.long	1
	.long	10
	.long	11
	.long	12
	.long	13
	.long	14
	.long	15
	.long	16
	.long	17
	.long	18
	.long	10
	.long	10
	.long	10
	.long	10
	.long	19
	.long	20
	.long	21
	.long	10
	.long	22
	.long	10
	.long	23
	.long	24
	.long	10
	.long	10
	.long	10
	.long	10
	.long	10
	.long	25
	.long	1
	.long	26
	.long	1
	.long	1
	.long	1
	.long	1
	.long	1
	.long	1
	.long	1
	.long	1
	.long	1
	.long	1
	.long	1
	.long	1
	.long	1
	.long	1
	.long	1
	.long	1
	.long	1
	.long	1
	.long	1
	.long	1
	.long	1
	.long	1
	.long	1
	.long	1
	.long	1
	.long	1
	.long	1
	.long	1
	.long	1
	.long	1
	.long	1
	.long	1
	.long	1
	.long	1
	.long	1
	.long	1
	.long	1
	.long	1
	.long	1
	.long	1
	.long	1
	.long	1
	.long	1
	.long	1
	.long	1
	.long	1
	.long	1
	.long	1
	.long	1
	.long	1
	.long	1
	.long	1
	.long	1
	.long	1
	.long	1
	.long	1
	.long	1
	.long	1
	.long	1
	.long	1
	.long	1
	.long	1
	.long	1
	.long	1
	.long	1
	.long	1
	.long	1
	.long	1
	.long	1
	.long	1
	.long	1
	.long	1
	.long	1
	.long	1
	.long	1
	.long	1
	.long	1
	.long	1
	.long	1
	.long	1
	.long	1
	.long	1
	.long	1
	.long	1
	.long	1
	.long	1
	.long	1
	.long	1
	.long	1
	.long	1
	.long	1
	.long	1
	.long	1
	.long	1
	.long	1
	.long	1
	.long	1
	.long	1
	.long	1
	.long	1
	.long	1
	.long	1
	.long	1
	.long	1
	.long	1
	.long	1
	.long	1
	.long	1
	.long	1
	.long	1
	.long	1
	.long	1
	.long	1
	.long	1
	.long	1
	.long	1
	.long	1
	.long	1
	.long	1
	.long	1
	.long	1
	.long	1
	.long	1
	.long	1
	.long	1
	.long	1
	.long	1
	.long	1
	.long	1
	.long	1
	.align 32
	.type	yy_meta, @object
	.size	yy_meta, 108
yy_meta:
	.long	0
	.long	1
	.long	1
	.long	2
	.long	1
	.long	1
	.long	1
	.long	1
	.long	1
	.long	3
	.long	3
	.long	3
	.long	3
	.long	3
	.long	3
	.long	3
	.long	3
	.long	3
	.long	3
	.long	3
	.long	3
	.long	3
	.long	3
	.long	3
	.long	3
	.long	1
	.long	1
	.align 32
	.type	yy_base, @object
	.size	yy_base, 94
yy_base:
	.value	0
	.value	0
	.value	0
	.value	69
	.value	70
	.value	25
	.value	27
	.value	70
	.value	24
	.value	0
	.value	54
	.value	48
	.value	42
	.value	50
	.value	42
	.value	46
	.value	36
	.value	32
	.value	52
	.value	29
	.value	0
	.value	44
	.value	46
	.value	39
	.value	0
	.value	37
	.value	42
	.value	29
	.value	70
	.value	45
	.value	35
	.value	40
	.value	39
	.value	31
	.value	30
	.value	25
	.value	33
	.value	28
	.value	32
	.value	24
	.value	19
	.value	23
	.value	18
	.value	23
	.value	70
	.value	29
	.value	38
	.align 32
	.type	yy_def, @object
	.size	yy_def, 94
yy_def:
	.value	0
	.value	44
	.value	1
	.value	44
	.value	44
	.value	44
	.value	44
	.value	44
	.value	44
	.value	45
	.value	45
	.value	45
	.value	45
	.value	45
	.value	45
	.value	45
	.value	46
	.value	44
	.value	44
	.value	44
	.value	45
	.value	45
	.value	45
	.value	45
	.value	45
	.value	45
	.value	45
	.value	46
	.value	44
	.value	44
	.value	45
	.value	45
	.value	45
	.value	45
	.value	45
	.value	45
	.value	45
	.value	45
	.value	45
	.value	45
	.value	45
	.value	45
	.value	45
	.value	45
	.value	0
	.value	44
	.value	44
	.align 32
	.type	yy_nxt, @object
	.size	yy_nxt, 194
yy_nxt:
	.value	0
	.value	4
	.value	5
	.value	6
	.value	7
	.value	7
	.value	7
	.value	4
	.value	7
	.value	8
	.value	9
	.value	10
	.value	9
	.value	9
	.value	11
	.value	12
	.value	9
	.value	9
	.value	13
	.value	9
	.value	9
	.value	14
	.value	9
	.value	15
	.value	9
	.value	16
	.value	4
	.value	17
	.value	17
	.value	17
	.value	17
	.value	18
	.value	20
	.value	19
	.value	17
	.value	17
	.value	18
	.value	24
	.value	19
	.value	27
	.value	43
	.value	27
	.value	24
	.value	42
	.value	41
	.value	40
	.value	39
	.value	38
	.value	37
	.value	24
	.value	24
	.value	36
	.value	35
	.value	34
	.value	29
	.value	28
	.value	33
	.value	32
	.value	31
	.value	24
	.value	30
	.value	29
	.value	28
	.value	26
	.value	25
	.value	24
	.value	23
	.value	22
	.value	21
	.value	44
	.value	3
	.value	44
	.value	44
	.value	44
	.value	44
	.value	44
	.value	44
	.value	44
	.value	44
	.value	44
	.value	44
	.value	44
	.value	44
	.value	44
	.value	44
	.value	44
	.value	44
	.value	44
	.value	44
	.value	44
	.value	44
	.value	44
	.value	44
	.value	44
	.value	44
	.value	44
	.value	44
	.align 32
	.type	yy_chk, @object
	.size	yy_chk, 194
yy_chk:
	.value	0
	.value	1
	.value	1
	.value	1
	.value	1
	.value	1
	.value	1
	.value	1
	.value	1
	.value	1
	.value	1
	.value	1
	.value	1
	.value	1
	.value	1
	.value	1
	.value	1
	.value	1
	.value	1
	.value	1
	.value	1
	.value	1
	.value	1
	.value	1
	.value	1
	.value	1
	.value	1
	.value	5
	.value	5
	.value	6
	.value	6
	.value	8
	.value	45
	.value	8
	.value	17
	.value	17
	.value	19
	.value	43
	.value	19
	.value	46
	.value	42
	.value	46
	.value	41
	.value	40
	.value	39
	.value	38
	.value	37
	.value	36
	.value	35
	.value	34
	.value	33
	.value	32
	.value	31
	.value	30
	.value	29
	.value	27
	.value	26
	.value	25
	.value	23
	.value	22
	.value	21
	.value	18
	.value	16
	.value	15
	.value	14
	.value	13
	.value	12
	.value	11
	.value	10
	.value	3
	.value	44
	.value	44
	.value	44
	.value	44
	.value	44
	.value	44
	.value	44
	.value	44
	.value	44
	.value	44
	.value	44
	.value	44
	.value	44
	.value	44
	.value	44
	.value	44
	.value	44
	.value	44
	.value	44
	.value	44
	.value	44
	.value	44
	.value	44
	.value	44
	.value	44
	.value	44
	.value	44
	.local	yy_last_accepting_state
	.comm	yy_last_accepting_state,4,4
	.local	yy_last_accepting_cpos
	.comm	yy_last_accepting_cpos,8,8
	.globl	yy_flex_debug
	.bss
	.align 4
	.type	yy_flex_debug, @object
	.size	yy_flex_debug, 4
yy_flex_debug:
	.zero	4
	.comm	yytext,8,8
	.section	.rodata
.LC0:
	.string	"An integer: %s (%d)\n"
.LC1:
	.string	"A float: %s (%g)\n"
.LC2:
	.string	"A keyword: %s\n"
.LC3:
	.string	"An identifier: %s\n"
.LC4:
	.string	"An operator: %s\n"
.LC5:
	.string	"Unrecognized character: %s\n"
	.align 8
.LC6:
	.string	"fatal flex scanner internal error--no action found"
	.text
	.globl	yylex
	.type	yylex, @function
yylex:
.LFB5:
	.cfi_startproc
	pushq	%rbp
	.cfi_def_cfa_offset 16
	.cfi_offset 6, -16
	movq	%rsp, %rbp
	.cfi_def_cfa_register 6
	pushq	%r14
	pushq	%r13
	pushq	%r12
	pushq	%rbx
	subq	$16, %rsp
	.cfi_offset 14, -24
	.cfi_offset 13, -32
	.cfi_offset 12, -40
	.cfi_offset 3, -48
	movl	yy_init(%rip), %eax
	testl	%eax, %eax
	jne	.L40
	movl	$1, yy_init(%rip)
	movl	yy_start(%rip), %eax
	testl	%eax, %eax
	jne	.L3
	movl	$1, yy_start(%rip)
.L3:
	movq	yyin(%rip), %rax
	testq	%rax, %rax
	jne	.L4
	movq	stdin(%rip), %rax
	movq	%rax, yyin(%rip)
.L4:
	movq	yyout(%rip), %rax
	testq	%rax, %rax
	jne	.L5
	movq	stdout(%rip), %rax
	movq	%rax, yyout(%rip)
.L5:
	movq	yy_buffer_stack(%rip), %rax
	testq	%rax, %rax
	je	.L6
	movq	yy_buffer_stack(%rip), %rax
	movq	yy_buffer_stack_top(%rip), %rdx
	salq	$3, %rdx
	addq	%rdx, %rax
	movq	(%rax), %rax
	testq	%rax, %rax
	jne	.L7
.L6:
	call	yyensure_buffer_stack
	movq	yyin(%rip), %rax
	movq	yy_buffer_stack(%rip), %rdx
	movq	yy_buffer_stack_top(%rip), %rcx
	salq	$3, %rcx
	leaq	(%rdx,%rcx), %rbx
	movl	$16384, %esi
	movq	%rax, %rdi
	call	yy_create_buffer
	movq	%rax, (%rbx)
.L7:
	call	yy_load_buffer_state
.L40:
	movq	yy_c_buf_p(%rip), %rbx
	movzbl	yy_hold_char(%rip), %eax
	movb	%al, (%rbx)
	movq	%rbx, %r13
	movl	yy_start(%rip), %r12d
	jmp	.L8
.L42:
	nop
.L8:
	movzbl	(%rbx), %eax
	movzbl	%al, %eax
	movl	%eax, %eax
	leaq	0(,%rax,4), %rdx
	leaq	yy_ec(%rip), %rax
	movl	(%rdx,%rax), %eax
	movl	%eax, %r14d
	movslq	%r12d, %rax
	leaq	(%rax,%rax), %rdx
	leaq	yy_accept(%rip), %rax
	movzwl	(%rdx,%rax), %eax
	testw	%ax, %ax
	je	.L10
	movl	%r12d, yy_last_accepting_state(%rip)
	movq	%rbx, yy_last_accepting_cpos(%rip)
	jmp	.L10
.L11:
	movslq	%r12d, %rax
	leaq	(%rax,%rax), %rdx
	leaq	yy_def(%rip), %rax
	movzwl	(%rdx,%rax), %eax
	movswl	%ax, %r12d
	cmpl	$44, %r12d
	jle	.L10
	movzbl	%r14b, %eax
	movl	%eax, %eax
	leaq	0(,%rax,4), %rdx
	leaq	yy_meta(%rip), %rax
	movl	(%rdx,%rax), %eax
	movl	%eax, %r14d
.L10:
	movslq	%r12d, %rax
	leaq	(%rax,%rax), %rdx
	leaq	yy_base(%rip), %rax
	movzwl	(%rdx,%rax), %eax
	movswl	%ax, %edx
	movzbl	%r14b, %eax
	addl	%edx, %eax
	cltq
	leaq	(%rax,%rax), %rdx
	leaq	yy_chk(%rip), %rax
	movzwl	(%rdx,%rax), %eax
	cwtl
	cmpl	%eax, %r12d
	jne	.L11
	movslq	%r12d, %rax
	leaq	(%rax,%rax), %rdx
	leaq	yy_base(%rip), %rax
	movzwl	(%rdx,%rax), %eax
	movswl	%ax, %edx
	movzbl	%r14b, %eax
	addl	%edx, %eax
	movl	%eax, %eax
	leaq	(%rax,%rax), %rdx
	leaq	yy_nxt(%rip), %rax
	movzwl	(%rdx,%rax), %eax
	movswl	%ax, %r12d
	addq	$1, %rbx
	movslq	%r12d, %rax
	leaq	(%rax,%rax), %rdx
	leaq	yy_base(%rip), %rax
	movzwl	(%rdx,%rax), %eax
	cmpw	$70, %ax
	jne	.L42
	nop
.L12:
	movslq	%r12d, %rax
	leaq	(%rax,%rax), %rdx
	leaq	yy_accept(%rip), %rax
	movzwl	(%rdx,%rax), %eax
	movswl	%ax, %r12d
	testl	%r12d, %r12d
	jne	.L13
	movq	yy_last_accepting_cpos(%rip), %rbx
	movl	yy_last_accepting_state(%rip), %r12d
	movslq	%r12d, %rax
	leaq	(%rax,%rax), %rdx
	leaq	yy_accept(%rip), %rax
	movzwl	(%rdx,%rax), %eax
	movswl	%ax, %r12d
.L13:
	movq	%r13, yytext(%rip)
	movq	%rbx, %rdx
	movq	%r13, %rax
	subq	%rax, %rdx
	movq	%rdx, %rax
	movl	%eax, yyleng(%rip)
	movzbl	(%rbx), %eax
	movb	%al, yy_hold_char(%rip)
	movb	$0, (%rbx)
	movq	%rbx, yy_c_buf_p(%rip)
.L14:
	cmpl	$11, %r12d
	ja	.L15
	movl	%r12d, %eax
	leaq	0(,%rax,4), %rdx
	leaq	.L17(%rip), %rax
	movl	(%rdx,%rax), %eax
	movslq	%eax, %rdx
	leaq	.L17(%rip), %rax
	addq	%rdx, %rax
	jmp	*%rax
	.section	.rodata
	.align 4
	.align 4
.L17:
	.long	.L16-.L17
	.long	.L18-.L17
	.long	.L19-.L17
	.long	.L20-.L17
	.long	.L21-.L17
	.long	.L22-.L17
	.long	.L43-.L17
	.long	.L43-.L17
	.long	.L25-.L17
	.long	.L26-.L17
	.long	.L27-.L17
	.long	.L28-.L17
	.text
.L16:
	movzbl	yy_hold_char(%rip), %eax
	movb	%al, (%rbx)
	movq	yy_last_accepting_cpos(%rip), %rbx
	movl	yy_last_accepting_state(%rip), %r12d
	jmp	.L12
.L18:
	movq	yytext(%rip), %rax
	movq	%rax, %rdi
	call	atoi@PLT
	movl	%eax, %edx
	movq	yytext(%rip), %rax
	movq	%rax, %rsi
	leaq	.LC0(%rip), %rdi
	movl	$0, %eax
	call	printf@PLT
	jmp	.L29
.L19:
	movq	yytext(%rip), %rax
	movq	%rax, %rdi
	call	atof@PLT
	movq	yytext(%rip), %rax
	movq	%rax, %rsi
	leaq	.LC1(%rip), %rdi
	movl	$1, %eax
	call	printf@PLT
	jmp	.L29
.L20:
	movq	yytext(%rip), %rax
	movq	%rax, %rsi
	leaq	.LC2(%rip), %rdi
	movl	$0, %eax
	call	printf@PLT
	jmp	.L29
.L21:
	movq	yytext(%rip), %rax
	movq	%rax, %rsi
	leaq	.LC3(%rip), %rdi
	movl	$0, %eax
	call	printf@PLT
	jmp	.L29
.L22:
	movq	yytext(%rip), %rax
	movq	%rax, %rsi
	leaq	.LC4(%rip), %rdi
	movl	$0, %eax
	call	printf@PLT
	jmp	.L29
.L25:
	movq	yytext(%rip), %rax
	movq	%rax, %rsi
	leaq	.LC5(%rip), %rdi
	movl	$0, %eax
	call	printf@PLT
	jmp	.L29
.L26:
	movq	yyout(%rip), %rdx
	movl	yyleng(%rip), %eax
	movslq	%eax, %rsi
	movq	yytext(%rip), %rax
	movq	%rdx, %rcx
	movl	$1, %edx
	movq	%rax, %rdi
	call	fwrite@PLT
	jmp	.L29
.L28:
	movl	$0, %eax
	jmp	.L41
.L27:
	movq	%rbx, %rdx
	movq	yytext(%rip), %rax
	subq	%rax, %rdx
	movq	%rdx, %rax
	subl	$1, %eax
	movl	%eax, -40(%rbp)
	movzbl	yy_hold_char(%rip), %eax
	movb	%al, (%rbx)
	movq	yy_buffer_stack(%rip), %rax
	movq	yy_buffer_stack_top(%rip), %rdx
	salq	$3, %rdx
	addq	%rdx, %rax
	movq	(%rax), %rax
	movl	60(%rax), %eax
	testl	%eax, %eax
	jne	.L31
	movq	yy_buffer_stack(%rip), %rax
	movq	yy_buffer_stack_top(%rip), %rdx
	salq	$3, %rdx
	addq	%rdx, %rax
	movq	(%rax), %rax
	movl	32(%rax), %eax
	movl	%eax, yy_n_chars(%rip)
	movq	yy_buffer_stack(%rip), %rax
	movq	yy_buffer_stack_top(%rip), %rdx
	salq	$3, %rdx
	addq	%rdx, %rax
	movq	(%rax), %rax
	movq	yyin(%rip), %rdx
	movq	%rdx, (%rax)
	movq	yy_buffer_stack(%rip), %rax
	movq	yy_buffer_stack_top(%rip), %rdx
	salq	$3, %rdx
	addq	%rdx, %rax
	movq	(%rax), %rax
	movl	$1, 60(%rax)
.L31:
	movq	yy_buffer_stack(%rip), %rax
	movq	yy_buffer_stack_top(%rip), %rdx
	salq	$3, %rdx
	addq	%rdx, %rax
	movq	(%rax), %rax
	movq	8(%rax), %rdx
	movl	yy_n_chars(%rip), %eax
	cltq
	addq	%rax, %rdx
	movq	yy_c_buf_p(%rip), %rax
	cmpq	%rax, %rdx
	jb	.L32
	movq	yytext(%rip), %rdx
	movl	-40(%rbp), %eax
	cltq
	addq	%rdx, %rax
	movq	%rax, yy_c_buf_p(%rip)
	call	yy_get_previous_state
	movl	%eax, %r12d
	movl	%r12d, %edi
	call	yy_try_NUL_trans
	movl	%eax, -36(%rbp)
	movq	yytext(%rip), %r13
	cmpl	$0, -36(%rbp)
	je	.L33
	movq	yy_c_buf_p(%rip), %rax
	addq	$1, %rax
	movq	%rax, yy_c_buf_p(%rip)
	movq	yy_c_buf_p(%rip), %rbx
	movl	-36(%rbp), %r12d
	jmp	.L8
.L33:
	movq	yy_c_buf_p(%rip), %rbx
	jmp	.L12
.L32:
	call	yy_get_next_buffer
	cmpl	$1, %eax
	je	.L35
	cmpl	$2, %eax
	je	.L36
	testl	%eax, %eax
	je	.L37
	jmp	.L29
.L35:
	movl	$0, yy_did_buffer_switch_on_eof(%rip)
	call	yywrap@PLT
	testl	%eax, %eax
	je	.L38
	movq	yytext(%rip), %rax
	movq	%rax, yy_c_buf_p(%rip)
	movl	yy_start(%rip), %eax
	subl	$1, %eax
	movl	%eax, %edx
	shrl	$31, %edx
	addl	%edx, %eax
	sarl	%eax
	leal	11(%rax), %r12d
	jmp	.L14
.L38:
	movl	yy_did_buffer_switch_on_eof(%rip), %eax
	testl	%eax, %eax
	jne	.L44
	movq	yyin(%rip), %rax
	movq	%rax, %rdi
	call	yyrestart
	jmp	.L44
.L37:
	movq	yytext(%rip), %rdx
	movl	-40(%rbp), %eax
	cltq
	addq	%rdx, %rax
	movq	%rax, yy_c_buf_p(%rip)
	call	yy_get_previous_state
	movl	%eax, %r12d
	movq	yy_c_buf_p(%rip), %rbx
	movq	yytext(%rip), %r13
	jmp	.L8
.L36:
	movq	yy_buffer_stack(%rip), %rax
	movq	yy_buffer_stack_top(%rip), %rdx
	salq	$3, %rdx
	addq	%rdx, %rax
	movq	(%rax), %rax
	movq	8(%rax), %rdx
	movl	yy_n_chars(%rip), %eax
	cltq
	addq	%rdx, %rax
	movq	%rax, yy_c_buf_p(%rip)
	call	yy_get_previous_state
	movl	%eax, %r12d
	movq	yy_c_buf_p(%rip), %rbx
	movq	yytext(%rip), %r13
	jmp	.L12
.L44:
	nop
	jmp	.L29
.L15:
	leaq	.LC6(%rip), %rdi
	call	yy_fatal_error
	jmp	.L40
.L43:
	nop
.L29:
	jmp	.L40
.L41:
	addq	$16, %rsp
	popq	%rbx
	popq	%r12
	popq	%r13
	popq	%r14
	popq	%rbp
	.cfi_def_cfa 7, 8
	ret
	.cfi_endproc
.LFE5:
	.size	yylex, .-yylex
	.section	.rodata
	.align 8
.LC7:
	.string	"fatal flex scanner internal error--end of buffer missed"
	.align 8
.LC8:
	.string	"fatal error - scanner input buffer overflow"
.LC9:
	.string	"input in flex scanner failed"
	.align 8
.LC10:
	.string	"out of dynamic memory in yy_get_next_buffer()"
	.text
	.type	yy_get_next_buffer, @function
yy_get_next_buffer:
.LFB6:
	.cfi_startproc
	pushq	%rbp
	.cfi_def_cfa_offset 16
	.cfi_offset 6, -16
	movq	%rsp, %rbp
	.cfi_def_cfa_register 6
	pushq	%r14
	pushq	%r13
	pushq	%r12
	pushq	%rbx
	subq	$48, %rsp
	.cfi_offset 14, -24
	.cfi_offset 13, -32
	.cfi_offset 12, -40
	.cfi_offset 3, -48
	movq	yy_buffer_stack(%rip), %rax
	movq	yy_buffer_stack_top(%rip), %rdx
	salq	$3, %rdx
	addq	%rdx, %rax
	movq	(%rax), %rax
	movq	8(%rax), %r13
	movq	yytext(%rip), %r14
	movq	yy_buffer_stack(%rip), %rax
	movq	yy_buffer_stack_top(%rip), %rdx
	salq	$3, %rdx
	addq	%rdx, %rax
	movq	(%rax), %rax
	movq	8(%rax), %rax
	movl	yy_n_chars(%rip), %edx
	movslq	%edx, %rdx
	addq	$1, %rdx
	addq	%rax, %rdx
	movq	yy_c_buf_p(%rip), %rax
	cmpq	%rax, %rdx
	jnb	.L46
	leaq	.LC7(%rip), %rdi
	call	yy_fatal_error
.L46:
	movq	yy_buffer_stack(%rip), %rax
	movq	yy_buffer_stack_top(%rip), %rdx
	salq	$3, %rdx
	addq	%rdx, %rax
	movq	(%rax), %rax
	movl	56(%rax), %eax
	testl	%eax, %eax
	jne	.L47
	movq	yy_c_buf_p(%rip), %rax
	movq	%rax, %rdx
	movq	yytext(%rip), %rax
	subq	%rax, %rdx
	movq	%rdx, %rax
	cmpq	$1, %rax
	jne	.L48
	movl	$1, %eax
	jmp	.L49
.L48:
	movl	$2, %eax
	jmp	.L49
.L47:
	movq	yy_c_buf_p(%rip), %rax
	movq	%rax, %rdx
	movq	yytext(%rip), %rax
	subq	%rax, %rdx
	movq	%rdx, %rax
	leal	-1(%rax), %ebx
	movl	$0, %r12d
	jmp	.L50
.L51:
	movq	%r14, %rdx
	leaq	1(%rdx), %r14
	movq	%r13, %rax
	leaq	1(%rax), %r13
	movzbl	(%rdx), %edx
	movb	%dl, (%rax)
	addl	$1, %r12d
.L50:
	cmpl	%ebx, %r12d
	jl	.L51
	movq	yy_buffer_stack(%rip), %rax
	movq	yy_buffer_stack_top(%rip), %rdx
	salq	$3, %rdx
	addq	%rdx, %rax
	movq	(%rax), %rax
	movl	60(%rax), %eax
	cmpl	$2, %eax
	jne	.L52
	movl	$0, yy_n_chars(%rip)
	movq	yy_buffer_stack(%rip), %rax
	movq	yy_buffer_stack_top(%rip), %rdx
	salq	$3, %rdx
	addq	%rdx, %rax
	movq	(%rax), %rax
	movl	yy_n_chars(%rip), %edx
	movl	%edx, 32(%rax)
	jmp	.L53
.L52:
	movq	yy_buffer_stack(%rip), %rax
	movq	yy_buffer_stack_top(%rip), %rdx
	salq	$3, %rdx
	addq	%rdx, %rax
	movq	(%rax), %rax
	movq	24(%rax), %rax
	movl	%eax, %edx
	movl	%ebx, %eax
	subl	%eax, %edx
	movl	%edx, %eax
	subl	$1, %eax
	movl	%eax, -72(%rbp)
	jmp	.L54
.L62:
	movq	yy_buffer_stack(%rip), %rax
	testq	%rax, %rax
	je	.L55
	movq	yy_buffer_stack(%rip), %rax
	movq	yy_buffer_stack_top(%rip), %rdx
	salq	$3, %rdx
	addq	%rdx, %rax
	movq	(%rax), %rax
	jmp	.L56
.L55:
	movl	$0, %eax
.L56:
	movq	%rax, -48(%rbp)
	movq	yy_c_buf_p(%rip), %rax
	movq	%rax, %rdx
	movq	-48(%rbp), %rax
	movq	8(%rax), %rax
	subq	%rax, %rdx
	movq	%rdx, %rax
	movl	%eax, -64(%rbp)
	movq	-48(%rbp), %rax
	movl	36(%rax), %eax
	testl	%eax, %eax
	je	.L57
	movq	-48(%rbp), %rax
	movq	24(%rax), %rax
	addl	%eax, %eax
	movl	%eax, -60(%rbp)
	cmpl	$0, -60(%rbp)
	jg	.L58
	movq	-48(%rbp), %rax
	movq	24(%rax), %rdx
	movq	-48(%rbp), %rax
	movq	24(%rax), %rax
	shrq	$3, %rax
	addq	%rax, %rdx
	movq	-48(%rbp), %rax
	movq	%rdx, 24(%rax)
	jmp	.L59
.L58:
	movq	-48(%rbp), %rax
	movq	24(%rax), %rax
	leaq	(%rax,%rax), %rdx
	movq	-48(%rbp), %rax
	movq	%rdx, 24(%rax)
.L59:
	movq	-48(%rbp), %rax
	movq	24(%rax), %rax
	leaq	2(%rax), %rdx
	movq	-48(%rbp), %rax
	movq	8(%rax), %rax
	movq	%rdx, %rsi
	movq	%rax, %rdi
	call	yyrealloc
	movq	%rax, %rdx
	movq	-48(%rbp), %rax
	movq	%rdx, 8(%rax)
	jmp	.L60
.L57:
	movq	-48(%rbp), %rax
	movq	$0, 8(%rax)
.L60:
	movq	-48(%rbp), %rax
	movq	8(%rax), %rax
	testq	%rax, %rax
	jne	.L61
	leaq	.LC8(%rip), %rdi
	call	yy_fatal_error
.L61:
	movq	-48(%rbp), %rax
	movq	8(%rax), %rdx
	movl	-64(%rbp), %eax
	cltq
	addq	%rdx, %rax
	movq	%rax, yy_c_buf_p(%rip)
	movq	yy_buffer_stack(%rip), %rax
	movq	yy_buffer_stack_top(%rip), %rdx
	salq	$3, %rdx
	addq	%rdx, %rax
	movq	(%rax), %rax
	movq	24(%rax), %rax
	movl	%eax, %edx
	movl	%ebx, %eax
	subl	%eax, %edx
	movl	%edx, %eax
	subl	$1, %eax
	movl	%eax, -72(%rbp)
.L54:
	cmpl	$0, -72(%rbp)
	jle	.L62
	cmpl	$8192, -72(%rbp)
	jle	.L63
	movl	$8192, -72(%rbp)
.L63:
	movq	yy_buffer_stack(%rip), %rax
	movq	yy_buffer_stack_top(%rip), %rdx
	salq	$3, %rdx
	addq	%rdx, %rax
	movq	(%rax), %rax
	movl	40(%rax), %eax
	testl	%eax, %eax
	je	.L64
	movl	$42, -68(%rbp)
	movq	$0, -56(%rbp)
	jmp	.L65
.L67:
	movq	yy_buffer_stack(%rip), %rax
	movq	yy_buffer_stack_top(%rip), %rdx
	salq	$3, %rdx
	addq	%rdx, %rax
	movq	(%rax), %rax
	movq	8(%rax), %rax
	movslq	%ebx, %rcx
	movq	-56(%rbp), %rdx
	addq	%rcx, %rdx
	addq	%rdx, %rax
	movl	-68(%rbp), %edx
	movb	%dl, (%rax)
	addq	$1, -56(%rbp)
.L65:
	movl	-72(%rbp), %eax
	cltq
	cmpq	%rax, -56(%rbp)
	jnb	.L66
	movq	yyin(%rip), %rax
	movq	%rax, %rdi
	call	_IO_getc@PLT
	movl	%eax, -68(%rbp)
	cmpl	$-1, -68(%rbp)
	je	.L66
	cmpl	$10, -68(%rbp)
	jne	.L67
.L66:
	cmpl	$10, -68(%rbp)
	jne	.L68
	movq	yy_buffer_stack(%rip), %rax
	movq	yy_buffer_stack_top(%rip), %rdx
	salq	$3, %rdx
	addq	%rdx, %rax
	movq	(%rax), %rax
	movq	8(%rax), %rcx
	movslq	%ebx, %rsi
	movq	-56(%rbp), %rax
	leaq	1(%rax), %rdx
	movq	%rdx, -56(%rbp)
	addq	%rsi, %rax
	addq	%rcx, %rax
	movl	-68(%rbp), %edx
	movb	%dl, (%rax)
.L68:
	cmpl	$-1, -68(%rbp)
	jne	.L69
	movq	yyin(%rip), %rax
	movq	%rax, %rdi
	call	ferror@PLT
	testl	%eax, %eax
	je	.L69
	leaq	.LC9(%rip), %rdi
	call	yy_fatal_error
.L69:
	movq	-56(%rbp), %rax
	movl	%eax, yy_n_chars(%rip)
	jmp	.L70
.L64:
	call	__errno_location@PLT
	movl	$0, (%rax)
	jmp	.L71
.L73:
	call	__errno_location@PLT
	movl	(%rax), %eax
	cmpl	$4, %eax
	je	.L72
	leaq	.LC9(%rip), %rdi
	call	yy_fatal_error
	jmp	.L70
.L72:
	call	__errno_location@PLT
	movl	$0, (%rax)
	movq	yyin(%rip), %rax
	movq	%rax, %rdi
	call	clearerr@PLT
.L71:
	movq	yyin(%rip), %rdx
	movl	-72(%rbp), %eax
	cltq
	movq	yy_buffer_stack(%rip), %rcx
	movq	yy_buffer_stack_top(%rip), %rsi
	salq	$3, %rsi
	addq	%rsi, %rcx
	movq	(%rcx), %rcx
	movq	8(%rcx), %rsi
	movslq	%ebx, %rcx
	leaq	(%rsi,%rcx), %rdi
	movq	%rdx, %rcx
	movq	%rax, %rdx
	movl	$1, %esi
	call	fread@PLT
	movl	%eax, yy_n_chars(%rip)
	movl	yy_n_chars(%rip), %eax
	testl	%eax, %eax
	jne	.L70
	movq	yyin(%rip), %rax
	movq	%rax, %rdi
	call	ferror@PLT
	testl	%eax, %eax
	jne	.L73
.L70:
	movq	yy_buffer_stack(%rip), %rax
	movq	yy_buffer_stack_top(%rip), %rdx
	salq	$3, %rdx
	addq	%rdx, %rax
	movq	(%rax), %rax
	movl	yy_n_chars(%rip), %edx
	movl	%edx, 32(%rax)
.L53:
	movl	yy_n_chars(%rip), %eax
	testl	%eax, %eax
	jne	.L74
	testl	%ebx, %ebx
	jne	.L75
	movl	$1, -76(%rbp)
	movq	yyin(%rip), %rax
	movq	%rax, %rdi
	call	yyrestart
	jmp	.L77
.L75:
	movl	$2, -76(%rbp)
	movq	yy_buffer_stack(%rip), %rax
	movq	yy_buffer_stack_top(%rip), %rdx
	salq	$3, %rdx
	addq	%rdx, %rax
	movq	(%rax), %rax
	movl	$2, 60(%rax)
	jmp	.L77
.L74:
	movl	$0, -76(%rbp)
.L77:
	movl	yy_n_chars(%rip), %eax
	addl	%ebx, %eax
	movslq	%eax, %rdx
	movq	yy_buffer_stack(%rip), %rax
	movq	yy_buffer_stack_top(%rip), %rcx
	salq	$3, %rcx
	addq	%rcx, %rax
	movq	(%rax), %rax
	movq	24(%rax), %rax
	cmpq	%rax, %rdx
	jbe	.L78
	movl	yy_n_chars(%rip), %eax
	leal	(%rbx,%rax), %edx
	movl	yy_n_chars(%rip), %eax
	sarl	%eax
	addl	%edx, %eax
	cltq
	movq	%rax, -40(%rbp)
	movq	yy_buffer_stack(%rip), %rax
	movq	yy_buffer_stack_top(%rip), %rdx
	salq	$3, %rdx
	addq	%rdx, %rax
	movq	(%rax), %rax
	movq	8(%rax), %rax
	movq	yy_buffer_stack(%rip), %rdx
	movq	yy_buffer_stack_top(%rip), %rcx
	salq	$3, %rcx
	addq	%rcx, %rdx
	movq	(%rdx), %r12
	movq	-40(%rbp), %rdx
	movq	%rdx, %rsi
	movq	%rax, %rdi
	call	yyrealloc
	movq	%rax, 8(%r12)
	movq	yy_buffer_stack(%rip), %rax
	movq	yy_buffer_stack_top(%rip), %rdx
	salq	$3, %rdx
	addq	%rdx, %rax
	movq	(%rax), %rax
	movq	8(%rax), %rax
	testq	%rax, %rax
	jne	.L78
	leaq	.LC10(%rip), %rdi
	call	yy_fatal_error
.L78:
	movl	yy_n_chars(%rip), %eax
	addl	%ebx, %eax
	movl	%eax, yy_n_chars(%rip)
	movq	yy_buffer_stack(%rip), %rax
	movq	yy_buffer_stack_top(%rip), %rdx
	salq	$3, %rdx
	addq	%rdx, %rax
	movq	(%rax), %rax
	movq	8(%rax), %rdx
	movl	yy_n_chars(%rip), %eax
	cltq
	addq	%rdx, %rax
	movb	$0, (%rax)
	movq	yy_buffer_stack(%rip), %rax
	movq	yy_buffer_stack_top(%rip), %rdx
	salq	$3, %rdx
	addq	%rdx, %rax
	movq	(%rax), %rax
	movq	8(%rax), %rax
	movl	yy_n_chars(%rip), %edx
	movslq	%edx, %rdx
	addq	$1, %rdx
	addq	%rdx, %rax
	movb	$0, (%rax)
	movq	yy_buffer_stack(%rip), %rax
	movq	yy_buffer_stack_top(%rip), %rdx
	salq	$3, %rdx
	addq	%rdx, %rax
	movq	(%rax), %rax
	movq	8(%rax), %rax
	movq	%rax, yytext(%rip)
	movl	-76(%rbp), %eax
.L49:
	addq	$48, %rsp
	popq	%rbx
	popq	%r12
	popq	%r13
	popq	%r14
	popq	%rbp
	.cfi_def_cfa 7, 8
	ret
	.cfi_endproc
.LFE6:
	.size	yy_get_next_buffer, .-yy_get_next_buffer
	.type	yy_get_previous_state, @function
yy_get_previous_state:
.LFB7:
	.cfi_startproc
	pushq	%rbp
	.cfi_def_cfa_offset 16
	.cfi_offset 6, -16
	movq	%rsp, %rbp
	.cfi_def_cfa_register 6
	pushq	%r13
	pushq	%r12
	pushq	%rbx
	.cfi_offset 13, -24
	.cfi_offset 12, -32
	.cfi_offset 3, -40
	movl	yy_start(%rip), %ebx
	movq	yytext(%rip), %r12
	jmp	.L80
.L86:
	movzbl	(%r12), %eax
	testb	%al, %al
	je	.L81
	movzbl	(%r12), %eax
	movzbl	%al, %eax
	movl	%eax, %eax
	leaq	0(,%rax,4), %rdx
	leaq	yy_ec(%rip), %rax
	movl	(%rdx,%rax), %eax
	jmp	.L82
.L81:
	movl	$1, %eax
.L82:
	movl	%eax, %r13d
	movslq	%ebx, %rax
	leaq	(%rax,%rax), %rdx
	leaq	yy_accept(%rip), %rax
	movzwl	(%rdx,%rax), %eax
	testw	%ax, %ax
	je	.L84
	movl	%ebx, yy_last_accepting_state(%rip)
	movq	%r12, yy_last_accepting_cpos(%rip)
	jmp	.L84
.L85:
	movslq	%ebx, %rax
	leaq	(%rax,%rax), %rdx
	leaq	yy_def(%rip), %rax
	movzwl	(%rdx,%rax), %eax
	movswl	%ax, %ebx
	cmpl	$44, %ebx
	jle	.L84
	movzbl	%r13b, %eax
	movl	%eax, %eax
	leaq	0(,%rax,4), %rdx
	leaq	yy_meta(%rip), %rax
	movl	(%rdx,%rax), %eax
	movl	%eax, %r13d
.L84:
	movslq	%ebx, %rax
	leaq	(%rax,%rax), %rdx
	leaq	yy_base(%rip), %rax
	movzwl	(%rdx,%rax), %eax
	movswl	%ax, %edx
	movzbl	%r13b, %eax
	addl	%edx, %eax
	cltq
	leaq	(%rax,%rax), %rdx
	leaq	yy_chk(%rip), %rax
	movzwl	(%rdx,%rax), %eax
	cwtl
	cmpl	%eax, %ebx
	jne	.L85
	movslq	%ebx, %rax
	leaq	(%rax,%rax), %rdx
	leaq	yy_base(%rip), %rax
	movzwl	(%rdx,%rax), %eax
	movswl	%ax, %edx
	movzbl	%r13b, %eax
	addl	%edx, %eax
	movl	%eax, %eax
	leaq	(%rax,%rax), %rdx
	leaq	yy_nxt(%rip), %rax
	movzwl	(%rdx,%rax), %eax
	movswl	%ax, %ebx
	addq	$1, %r12
.L80:
	movq	yy_c_buf_p(%rip), %rax
	cmpq	%rax, %r12
	jb	.L86
	movl	%ebx, %eax
	popq	%rbx
	popq	%r12
	popq	%r13
	popq	%rbp
	.cfi_def_cfa 7, 8
	ret
	.cfi_endproc
.LFE7:
	.size	yy_get_previous_state, .-yy_get_previous_state
	.type	yy_try_NUL_trans, @function
yy_try_NUL_trans:
.LFB8:
	.cfi_startproc
	pushq	%rbp
	.cfi_def_cfa_offset 16
	.cfi_offset 6, -16
	movq	%rsp, %rbp
	.cfi_def_cfa_register 6
	pushq	%r12
	pushq	%rbx
	.cfi_offset 12, -24
	.cfi_offset 3, -32
	movl	%edi, -20(%rbp)
	movq	yy_c_buf_p(%rip), %r12
	movl	$1, %ebx
	movl	-20(%rbp), %eax
	cltq
	leaq	(%rax,%rax), %rdx
	leaq	yy_accept(%rip), %rax
	movzwl	(%rdx,%rax), %eax
	testw	%ax, %ax
	je	.L90
	movl	-20(%rbp), %eax
	movl	%eax, yy_last_accepting_state(%rip)
	movq	%r12, yy_last_accepting_cpos(%rip)
	jmp	.L90
.L91:
	movl	-20(%rbp), %eax
	cltq
	leaq	(%rax,%rax), %rdx
	leaq	yy_def(%rip), %rax
	movzwl	(%rdx,%rax), %eax
	cwtl
	movl	%eax, -20(%rbp)
	cmpl	$44, -20(%rbp)
	jle	.L90
	movzbl	%bl, %eax
	movl	%eax, %eax
	leaq	0(,%rax,4), %rdx
	leaq	yy_meta(%rip), %rax
	movl	(%rdx,%rax), %eax
	movl	%eax, %ebx
.L90:
	movl	-20(%rbp), %eax
	cltq
	leaq	(%rax,%rax), %rdx
	leaq	yy_base(%rip), %rax
	movzwl	(%rdx,%rax), %eax
	movswl	%ax, %edx
	movzbl	%bl, %eax
	addl	%edx, %eax
	cltq
	leaq	(%rax,%rax), %rdx
	leaq	yy_chk(%rip), %rax
	movzwl	(%rdx,%rax), %eax
	cwtl
	cmpl	%eax, -20(%rbp)
	jne	.L91
	movl	-20(%rbp), %eax
	cltq
	leaq	(%rax,%rax), %rdx
	leaq	yy_base(%rip), %rax
	movzwl	(%rdx,%rax), %eax
	movswl	%ax, %edx
	movzbl	%bl, %eax
	addl	%edx, %eax
	movl	%eax, %eax
	leaq	(%rax,%rax), %rdx
	leaq	yy_nxt(%rip), %rax
	movzwl	(%rdx,%rax), %eax
	cwtl
	movl	%eax, -20(%rbp)
	cmpl	$44, -20(%rbp)
	sete	%al
	movzbl	%al, %ebx
	testl	%ebx, %ebx
	jne	.L92
	movl	-20(%rbp), %eax
	jmp	.L94
.L92:
	movl	$0, %eax
.L94:
	popq	%rbx
	popq	%r12
	popq	%rbp
	.cfi_def_cfa 7, 8
	ret
	.cfi_endproc
.LFE8:
	.size	yy_try_NUL_trans, .-yy_try_NUL_trans
	.section	.rodata
	.align 8
.LC11:
	.string	"flex scanner push-back overflow"
	.text
	.type	yyunput, @function
yyunput:
.LFB9:
	.cfi_startproc
	pushq	%rbp
	.cfi_def_cfa_offset 16
	.cfi_offset 6, -16
	movq	%rsp, %rbp
	.cfi_def_cfa_register 6
	pushq	%r14
	pushq	%r13
	pushq	%r12
	pushq	%rbx
	subq	$16, %rsp
	.cfi_offset 14, -24
	.cfi_offset 13, -32
	.cfi_offset 12, -40
	.cfi_offset 3, -48
	movl	%edi, -36(%rbp)
	movq	%rsi, %r14
	movq	yy_c_buf_p(%rip), %rbx
	movzbl	yy_hold_char(%rip), %eax
	movb	%al, (%rbx)
	movq	yy_buffer_stack(%rip), %rax
	movq	yy_buffer_stack_top(%rip), %rdx
	salq	$3, %rdx
	addq	%rdx, %rax
	movq	(%rax), %rax
	movq	8(%rax), %rax
	addq	$2, %rax
	cmpq	%rax, %rbx
	jnb	.L96
	movl	yy_n_chars(%rip), %eax
	leal	2(%rax), %r12d
	movq	yy_buffer_stack(%rip), %rax
	movq	yy_buffer_stack_top(%rip), %rdx
	salq	$3, %rdx
	addq	%rdx, %rax
	movq	(%rax), %rax
	movq	8(%rax), %rdx
	movq	yy_buffer_stack(%rip), %rax
	movq	yy_buffer_stack_top(%rip), %rcx
	salq	$3, %rcx
	addq	%rcx, %rax
	movq	(%rax), %rax
	movq	24(%rax), %rax
	addq	$2, %rax
	leaq	(%rdx,%rax), %r13
	movq	yy_buffer_stack(%rip), %rax
	movq	yy_buffer_stack_top(%rip), %rdx
	salq	$3, %rdx
	addq	%rdx, %rax
	movq	(%rax), %rax
	movq	8(%rax), %rdx
	movslq	%r12d, %rax
	leaq	(%rdx,%rax), %r12
	jmp	.L97
.L98:
	subq	$1, %r12
	subq	$1, %r13
	movzbl	(%r12), %eax
	movb	%al, 0(%r13)
.L97:
	movq	yy_buffer_stack(%rip), %rax
	movq	yy_buffer_stack_top(%rip), %rdx
	salq	$3, %rdx
	addq	%rdx, %rax
	movq	(%rax), %rax
	movq	8(%rax), %rax
	cmpq	%rax, %r12
	ja	.L98
	movq	%r13, %rdx
	movq	%r12, %rax
	subq	%rax, %rdx
	movq	%rdx, %rax
	cltq
	addq	%rax, %rbx
	movq	%r13, %rdx
	movq	%r12, %rax
	subq	%rax, %rdx
	movq	%rdx, %rax
	cltq
	addq	%rax, %r14
	movq	yy_buffer_stack(%rip), %rax
	movq	yy_buffer_stack_top(%rip), %rdx
	salq	$3, %rdx
	addq	%rdx, %rax
	movq	(%rax), %rax
	movq	24(%rax), %rax
	movl	%eax, yy_n_chars(%rip)
	movq	yy_buffer_stack(%rip), %rax
	movq	yy_buffer_stack_top(%rip), %rdx
	salq	$3, %rdx
	addq	%rdx, %rax
	movq	(%rax), %rax
	movl	yy_n_chars(%rip), %edx
	movl	%edx, 32(%rax)
	movq	yy_buffer_stack(%rip), %rax
	movq	yy_buffer_stack_top(%rip), %rdx
	salq	$3, %rdx
	addq	%rdx, %rax
	movq	(%rax), %rax
	movq	8(%rax), %rax
	addq	$2, %rax
	cmpq	%rax, %rbx
	jnb	.L96
	leaq	.LC11(%rip), %rdi
	call	yy_fatal_error
.L96:
	subq	$1, %rbx
	movl	-36(%rbp), %eax
	movb	%al, (%rbx)
	movq	%r14, yytext(%rip)
	movzbl	(%rbx), %eax
	movb	%al, yy_hold_char(%rip)
	movq	%rbx, yy_c_buf_p(%rip)
	nop
	addq	$16, %rsp
	popq	%rbx
	popq	%r12
	popq	%r13
	popq	%r14
	popq	%rbp
	.cfi_def_cfa 7, 8
	ret
	.cfi_endproc
.LFE9:
	.size	yyunput, .-yyunput
	.type	input, @function
input:
.LFB10:
	.cfi_startproc
	pushq	%rbp
	.cfi_def_cfa_offset 16
	.cfi_offset 6, -16
	movq	%rsp, %rbp
	.cfi_def_cfa_register 6
	subq	$16, %rsp
	movq	yy_c_buf_p(%rip), %rax
	movzbl	yy_hold_char(%rip), %edx
	movb	%dl, (%rax)
	movq	yy_c_buf_p(%rip), %rax
	movzbl	(%rax), %eax
	testb	%al, %al
	jne	.L100
	movq	yy_buffer_stack(%rip), %rax
	movq	yy_buffer_stack_top(%rip), %rdx
	salq	$3, %rdx
	addq	%rdx, %rax
	movq	(%rax), %rax
	movq	8(%rax), %rdx
	movl	yy_n_chars(%rip), %eax
	cltq
	addq	%rax, %rdx
	movq	yy_c_buf_p(%rip), %rax
	cmpq	%rax, %rdx
	jbe	.L101
	movq	yy_c_buf_p(%rip), %rax
	movb	$0, (%rax)
	jmp	.L100
.L101:
	movq	yy_c_buf_p(%rip), %rax
	movq	%rax, %rdx
	movq	yytext(%rip), %rax
	subq	%rax, %rdx
	movq	%rdx, %rax
	movl	%eax, -8(%rbp)
	movq	yy_c_buf_p(%rip), %rax
	addq	$1, %rax
	movq	%rax, yy_c_buf_p(%rip)
	call	yy_get_next_buffer
	cmpl	$1, %eax
	je	.L102
	cmpl	$2, %eax
	je	.L103
	testl	%eax, %eax
	je	.L104
	jmp	.L100
.L103:
	movq	yyin(%rip), %rax
	movq	%rax, %rdi
	call	yyrestart
.L102:
	call	yywrap@PLT
	testl	%eax, %eax
	je	.L105
	movl	$-1, %eax
	jmp	.L106
.L105:
	movl	yy_did_buffer_switch_on_eof(%rip), %eax
	testl	%eax, %eax
	jne	.L107
	movq	yyin(%rip), %rax
	movq	%rax, %rdi
	call	yyrestart
.L107:
	call	input
	jmp	.L106
.L104:
	movq	yytext(%rip), %rdx
	movl	-8(%rbp), %eax
	cltq
	addq	%rdx, %rax
	movq	%rax, yy_c_buf_p(%rip)
	nop
.L100:
	movq	yy_c_buf_p(%rip), %rax
	movzbl	(%rax), %eax
	movzbl	%al, %eax
	movl	%eax, -4(%rbp)
	movq	yy_c_buf_p(%rip), %rax
	movb	$0, (%rax)
	movq	yy_c_buf_p(%rip), %rax
	addq	$1, %rax
	movq	%rax, yy_c_buf_p(%rip)
	movq	yy_c_buf_p(%rip), %rax
	movzbl	(%rax), %eax
	movb	%al, yy_hold_char(%rip)
	movl	-4(%rbp), %eax
.L106:
	leave
	.cfi_def_cfa 7, 8
	ret
	.cfi_endproc
.LFE10:
	.size	input, .-input
	.globl	yyrestart
	.type	yyrestart, @function
yyrestart:
.LFB11:
	.cfi_startproc
	pushq	%rbp
	.cfi_def_cfa_offset 16
	.cfi_offset 6, -16
	movq	%rsp, %rbp
	.cfi_def_cfa_register 6
	pushq	%rbx
	subq	$24, %rsp
	.cfi_offset 3, -24
	movq	%rdi, -24(%rbp)
	movq	yy_buffer_stack(%rip), %rax
	testq	%rax, %rax
	je	.L109
	movq	yy_buffer_stack(%rip), %rax
	movq	yy_buffer_stack_top(%rip), %rdx
	salq	$3, %rdx
	addq	%rdx, %rax
	movq	(%rax), %rax
	testq	%rax, %rax
	jne	.L110
.L109:
	call	yyensure_buffer_stack
	movq	yyin(%rip), %rax
	movq	yy_buffer_stack(%rip), %rdx
	movq	yy_buffer_stack_top(%rip), %rcx
	salq	$3, %rcx
	leaq	(%rdx,%rcx), %rbx
	movl	$16384, %esi
	movq	%rax, %rdi
	call	yy_create_buffer
	movq	%rax, (%rbx)
.L110:
	movq	yy_buffer_stack(%rip), %rax
	testq	%rax, %rax
	je	.L111
	movq	yy_buffer_stack(%rip), %rax
	movq	yy_buffer_stack_top(%rip), %rdx
	salq	$3, %rdx
	addq	%rdx, %rax
	movq	(%rax), %rax
	jmp	.L112
.L111:
	movl	$0, %eax
.L112:
	movq	-24(%rbp), %rdx
	movq	%rdx, %rsi
	movq	%rax, %rdi
	call	yy_init_buffer
	call	yy_load_buffer_state
	nop
	addq	$24, %rsp
	popq	%rbx
	popq	%rbp
	.cfi_def_cfa 7, 8
	ret
	.cfi_endproc
.LFE11:
	.size	yyrestart, .-yyrestart
	.globl	yy_switch_to_buffer
	.type	yy_switch_to_buffer, @function
yy_switch_to_buffer:
.LFB12:
	.cfi_startproc
	pushq	%rbp
	.cfi_def_cfa_offset 16
	.cfi_offset 6, -16
	movq	%rsp, %rbp
	.cfi_def_cfa_register 6
	subq	$16, %rsp
	movq	%rdi, -8(%rbp)
	call	yyensure_buffer_stack
	movq	yy_buffer_stack(%rip), %rax
	testq	%rax, %rax
	je	.L114
	movq	yy_buffer_stack(%rip), %rax
	movq	yy_buffer_stack_top(%rip), %rdx
	salq	$3, %rdx
	addq	%rdx, %rax
	movq	(%rax), %rax
	jmp	.L115
.L114:
	movl	$0, %eax
.L115:
	cmpq	-8(%rbp), %rax
	je	.L119
	movq	yy_buffer_stack(%rip), %rax
	testq	%rax, %rax
	je	.L118
	movq	yy_buffer_stack(%rip), %rax
	movq	yy_buffer_stack_top(%rip), %rdx
	salq	$3, %rdx
	addq	%rdx, %rax
	movq	(%rax), %rax
	testq	%rax, %rax
	je	.L118
	movq	yy_c_buf_p(%rip), %rax
	movzbl	yy_hold_char(%rip), %edx
	movb	%dl, (%rax)
	movq	yy_buffer_stack(%rip), %rax
	movq	yy_buffer_stack_top(%rip), %rdx
	salq	$3, %rdx
	addq	%rdx, %rax
	movq	(%rax), %rax
	movq	yy_c_buf_p(%rip), %rdx
	movq	%rdx, 16(%rax)
	movq	yy_buffer_stack(%rip), %rax
	movq	yy_buffer_stack_top(%rip), %rdx
	salq	$3, %rdx
	addq	%rdx, %rax
	movq	(%rax), %rax
	movl	yy_n_chars(%rip), %edx
	movl	%edx, 32(%rax)
.L118:
	movq	yy_buffer_stack(%rip), %rax
	movq	yy_buffer_stack_top(%rip), %rdx
	salq	$3, %rdx
	addq	%rax, %rdx
	movq	-8(%rbp), %rax
	movq	%rax, (%rdx)
	call	yy_load_buffer_state
	movl	$1, yy_did_buffer_switch_on_eof(%rip)
	jmp	.L113
.L119:
	nop
.L113:
	leave
	.cfi_def_cfa 7, 8
	ret
	.cfi_endproc
.LFE12:
	.size	yy_switch_to_buffer, .-yy_switch_to_buffer
	.type	yy_load_buffer_state, @function
yy_load_buffer_state:
.LFB13:
	.cfi_startproc
	pushq	%rbp
	.cfi_def_cfa_offset 16
	.cfi_offset 6, -16
	movq	%rsp, %rbp
	.cfi_def_cfa_register 6
	movq	yy_buffer_stack(%rip), %rax
	movq	yy_buffer_stack_top(%rip), %rdx
	salq	$3, %rdx
	addq	%rdx, %rax
	movq	(%rax), %rax
	movl	32(%rax), %eax
	movl	%eax, yy_n_chars(%rip)
	movq	yy_buffer_stack(%rip), %rax
	movq	yy_buffer_stack_top(%rip), %rdx
	salq	$3, %rdx
	addq	%rdx, %rax
	movq	(%rax), %rax
	movq	16(%rax), %rax
	movq	%rax, yy_c_buf_p(%rip)
	movq	yy_c_buf_p(%rip), %rax
	movq	%rax, yytext(%rip)
	movq	yy_buffer_stack(%rip), %rax
	movq	yy_buffer_stack_top(%rip), %rdx
	salq	$3, %rdx
	addq	%rdx, %rax
	movq	(%rax), %rax
	movq	(%rax), %rax
	movq	%rax, yyin(%rip)
	movq	yy_c_buf_p(%rip), %rax
	movzbl	(%rax), %eax
	movb	%al, yy_hold_char(%rip)
	nop
	popq	%rbp
	.cfi_def_cfa 7, 8
	ret
	.cfi_endproc
.LFE13:
	.size	yy_load_buffer_state, .-yy_load_buffer_state
	.section	.rodata
	.align 8
.LC12:
	.string	"out of dynamic memory in yy_create_buffer()"
	.text
	.globl	yy_create_buffer
	.type	yy_create_buffer, @function
yy_create_buffer:
.LFB14:
	.cfi_startproc
	pushq	%rbp
	.cfi_def_cfa_offset 16
	.cfi_offset 6, -16
	movq	%rsp, %rbp
	.cfi_def_cfa_register 6
	subq	$32, %rsp
	movq	%rdi, -24(%rbp)
	movl	%esi, -28(%rbp)
	movl	$64, %edi
	call	yyalloc
	movq	%rax, -8(%rbp)
	cmpq	$0, -8(%rbp)
	jne	.L122
	leaq	.LC12(%rip), %rdi
	call	yy_fatal_error
.L122:
	movl	-28(%rbp), %eax
	movslq	%eax, %rdx
	movq	-8(%rbp), %rax
	movq	%rdx, 24(%rax)
	movq	-8(%rbp), %rax
	movq	24(%rax), %rax
	addq	$2, %rax
	movq	%rax, %rdi
	call	yyalloc
	movq	%rax, %rdx
	movq	-8(%rbp), %rax
	movq	%rdx, 8(%rax)
	movq	-8(%rbp), %rax
	movq	8(%rax), %rax
	testq	%rax, %rax
	jne	.L123
	leaq	.LC12(%rip), %rdi
	call	yy_fatal_error
.L123:
	movq	-8(%rbp), %rax
	movl	$1, 36(%rax)
	movq	-24(%rbp), %rdx
	movq	-8(%rbp), %rax
	movq	%rdx, %rsi
	movq	%rax, %rdi
	call	yy_init_buffer
	movq	-8(%rbp), %rax
	leave
	.cfi_def_cfa 7, 8
	ret
	.cfi_endproc
.LFE14:
	.size	yy_create_buffer, .-yy_create_buffer
	.globl	yy_delete_buffer
	.type	yy_delete_buffer, @function
yy_delete_buffer:
.LFB15:
	.cfi_startproc
	pushq	%rbp
	.cfi_def_cfa_offset 16
	.cfi_offset 6, -16
	movq	%rsp, %rbp
	.cfi_def_cfa_register 6
	subq	$16, %rsp
	movq	%rdi, -8(%rbp)
	cmpq	$0, -8(%rbp)
	je	.L132
	movq	yy_buffer_stack(%rip), %rax
	testq	%rax, %rax
	je	.L128
	movq	yy_buffer_stack(%rip), %rax
	movq	yy_buffer_stack_top(%rip), %rdx
	salq	$3, %rdx
	addq	%rdx, %rax
	movq	(%rax), %rax
	jmp	.L129
.L128:
	movl	$0, %eax
.L129:
	cmpq	-8(%rbp), %rax
	jne	.L130
	movq	yy_buffer_stack(%rip), %rax
	movq	yy_buffer_stack_top(%rip), %rdx
	salq	$3, %rdx
	addq	%rdx, %rax
	movq	$0, (%rax)
.L130:
	movq	-8(%rbp), %rax
	movl	36(%rax), %eax
	testl	%eax, %eax
	je	.L131
	movq	-8(%rbp), %rax
	movq	8(%rax), %rax
	movq	%rax, %rdi
	call	yyfree
.L131:
	movq	-8(%rbp), %rax
	movq	%rax, %rdi
	call	yyfree
	jmp	.L125
.L132:
	nop
.L125:
	leave
	.cfi_def_cfa 7, 8
	ret
	.cfi_endproc
.LFE15:
	.size	yy_delete_buffer, .-yy_delete_buffer
	.type	yy_init_buffer, @function
yy_init_buffer:
.LFB16:
	.cfi_startproc
	pushq	%rbp
	.cfi_def_cfa_offset 16
	.cfi_offset 6, -16
	movq	%rsp, %rbp
	.cfi_def_cfa_register 6
	subq	$32, %rsp
	movq	%rdi, -24(%rbp)
	movq	%rsi, -32(%rbp)
	call	__errno_location@PLT
	movl	(%rax), %eax
	movl	%eax, -4(%rbp)
	movq	-24(%rbp), %rax
	movq	%rax, %rdi
	call	yy_flush_buffer
	movq	-24(%rbp), %rax
	movq	-32(%rbp), %rdx
	movq	%rdx, (%rax)
	movq	-24(%rbp), %rax
	movl	$1, 56(%rax)
	movq	yy_buffer_stack(%rip), %rax
	testq	%rax, %rax
	je	.L134
	movq	yy_buffer_stack(%rip), %rax
	movq	yy_buffer_stack_top(%rip), %rdx
	salq	$3, %rdx
	addq	%rdx, %rax
	movq	(%rax), %rax
	jmp	.L135
.L134:
	movl	$0, %eax
.L135:
	cmpq	-24(%rbp), %rax
	je	.L136
	movq	-24(%rbp), %rax
	movl	$1, 48(%rax)
	movq	-24(%rbp), %rax
	movl	$0, 52(%rax)
.L136:
	cmpq	$0, -32(%rbp)
	je	.L137
	movq	-32(%rbp), %rax
	movq	%rax, %rdi
	call	fileno@PLT
	movl	%eax, %edi
	call	isatty@PLT
	testl	%eax, %eax
	jle	.L137
	movl	$1, %edx
	jmp	.L138
.L137:
	movl	$0, %edx
.L138:
	movq	-24(%rbp), %rax
	movl	%edx, 40(%rax)
	call	__errno_location@PLT
	movq	%rax, %rdx
	movl	-4(%rbp), %eax
	movl	%eax, (%rdx)
	nop
	leave
	.cfi_def_cfa 7, 8
	ret
	.cfi_endproc
.LFE16:
	.size	yy_init_buffer, .-yy_init_buffer
	.globl	yy_flush_buffer
	.type	yy_flush_buffer, @function
yy_flush_buffer:
.LFB17:
	.cfi_startproc
	pushq	%rbp
	.cfi_def_cfa_offset 16
	.cfi_offset 6, -16
	movq	%rsp, %rbp
	.cfi_def_cfa_register 6
	subq	$8, %rsp
	movq	%rdi, -8(%rbp)
	cmpq	$0, -8(%rbp)
	je	.L144
	movq	-8(%rbp), %rax
	movl	$0, 32(%rax)
	movq	-8(%rbp), %rax
	movq	8(%rax), %rax
	movb	$0, (%rax)
	movq	-8(%rbp), %rax
	movq	8(%rax), %rax
	addq	$1, %rax
	movb	$0, (%rax)
	movq	-8(%rbp), %rax
	movq	8(%rax), %rdx
	movq	-8(%rbp), %rax
	movq	%rdx, 16(%rax)
	movq	-8(%rbp), %rax
	movl	$1, 44(%rax)
	movq	-8(%rbp), %rax
	movl	$0, 60(%rax)
	movq	yy_buffer_stack(%rip), %rax
	testq	%rax, %rax
	je	.L142
	movq	yy_buffer_stack(%rip), %rax
	movq	yy_buffer_stack_top(%rip), %rdx
	salq	$3, %rdx
	addq	%rdx, %rax
	movq	(%rax), %rax
	jmp	.L143
.L142:
	movl	$0, %eax
.L143:
	cmpq	-8(%rbp), %rax
	jne	.L139
	call	yy_load_buffer_state
	jmp	.L139
.L144:
	nop
.L139:
	leave
	.cfi_def_cfa 7, 8
	ret
	.cfi_endproc
.LFE17:
	.size	yy_flush_buffer, .-yy_flush_buffer
	.globl	yypush_buffer_state
	.type	yypush_buffer_state, @function
yypush_buffer_state:
.LFB18:
	.cfi_startproc
	pushq	%rbp
	.cfi_def_cfa_offset 16
	.cfi_offset 6, -16
	movq	%rsp, %rbp
	.cfi_def_cfa_register 6
	subq	$16, %rsp
	movq	%rdi, -8(%rbp)
	cmpq	$0, -8(%rbp)
	je	.L150
	call	yyensure_buffer_stack
	movq	yy_buffer_stack(%rip), %rax
	testq	%rax, %rax
	je	.L148
	movq	yy_buffer_stack(%rip), %rax
	movq	yy_buffer_stack_top(%rip), %rdx
	salq	$3, %rdx
	addq	%rdx, %rax
	movq	(%rax), %rax
	testq	%rax, %rax
	je	.L148
	movq	yy_c_buf_p(%rip), %rax
	movzbl	yy_hold_char(%rip), %edx
	movb	%dl, (%rax)
	movq	yy_buffer_stack(%rip), %rax
	movq	yy_buffer_stack_top(%rip), %rdx
	salq	$3, %rdx
	addq	%rdx, %rax
	movq	(%rax), %rax
	movq	yy_c_buf_p(%rip), %rdx
	movq	%rdx, 16(%rax)
	movq	yy_buffer_stack(%rip), %rax
	movq	yy_buffer_stack_top(%rip), %rdx
	salq	$3, %rdx
	addq	%rdx, %rax
	movq	(%rax), %rax
	movl	yy_n_chars(%rip), %edx
	movl	%edx, 32(%rax)
.L148:
	movq	yy_buffer_stack(%rip), %rax
	testq	%rax, %rax
	je	.L149
	movq	yy_buffer_stack(%rip), %rax
	movq	yy_buffer_stack_top(%rip), %rdx
	salq	$3, %rdx
	addq	%rdx, %rax
	movq	(%rax), %rax
	testq	%rax, %rax
	je	.L149
	movq	yy_buffer_stack_top(%rip), %rax
	addq	$1, %rax
	movq	%rax, yy_buffer_stack_top(%rip)
.L149:
	movq	yy_buffer_stack(%rip), %rax
	movq	yy_buffer_stack_top(%rip), %rdx
	salq	$3, %rdx
	addq	%rax, %rdx
	movq	-8(%rbp), %rax
	movq	%rax, (%rdx)
	call	yy_load_buffer_state
	movl	$1, yy_did_buffer_switch_on_eof(%rip)
	jmp	.L145
.L150:
	nop
.L145:
	leave
	.cfi_def_cfa 7, 8
	ret
	.cfi_endproc
.LFE18:
	.size	yypush_buffer_state, .-yypush_buffer_state
	.globl	yypop_buffer_state
	.type	yypop_buffer_state, @function
yypop_buffer_state:
.LFB19:
	.cfi_startproc
	pushq	%rbp
	.cfi_def_cfa_offset 16
	.cfi_offset 6, -16
	movq	%rsp, %rbp
	.cfi_def_cfa_register 6
	movq	yy_buffer_stack(%rip), %rax
	testq	%rax, %rax
	je	.L158
	movq	yy_buffer_stack(%rip), %rax
	movq	yy_buffer_stack_top(%rip), %rdx
	salq	$3, %rdx
	addq	%rdx, %rax
	movq	(%rax), %rax
	testq	%rax, %rax
	je	.L158
	movq	yy_buffer_stack(%rip), %rax
	testq	%rax, %rax
	je	.L155
	movq	yy_buffer_stack(%rip), %rax
	movq	yy_buffer_stack_top(%rip), %rdx
	salq	$3, %rdx
	addq	%rdx, %rax
	movq	(%rax), %rax
	jmp	.L156
.L155:
	movl	$0, %eax
.L156:
	movq	%rax, %rdi
	call	yy_delete_buffer
	movq	yy_buffer_stack(%rip), %rax
	movq	yy_buffer_stack_top(%rip), %rdx
	salq	$3, %rdx
	addq	%rdx, %rax
	movq	$0, (%rax)
	movq	yy_buffer_stack_top(%rip), %rax
	testq	%rax, %rax
	je	.L157
	movq	yy_buffer_stack_top(%rip), %rax
	subq	$1, %rax
	movq	%rax, yy_buffer_stack_top(%rip)
.L157:
	movq	yy_buffer_stack(%rip), %rax
	testq	%rax, %rax
	je	.L151
	movq	yy_buffer_stack(%rip), %rax
	movq	yy_buffer_stack_top(%rip), %rdx
	salq	$3, %rdx
	addq	%rdx, %rax
	movq	(%rax), %rax
	testq	%rax, %rax
	je	.L151
	call	yy_load_buffer_state
	movl	$1, yy_did_buffer_switch_on_eof(%rip)
	jmp	.L151
.L158:
	nop
.L151:
	popq	%rbp
	.cfi_def_cfa 7, 8
	ret
	.cfi_endproc
.LFE19:
	.size	yypop_buffer_state, .-yypop_buffer_state
	.section	.rodata
	.align 8
.LC13:
	.string	"out of dynamic memory in yyensure_buffer_stack()"
	.text
	.type	yyensure_buffer_stack, @function
yyensure_buffer_stack:
.LFB20:
	.cfi_startproc
	pushq	%rbp
	.cfi_def_cfa_offset 16
	.cfi_offset 6, -16
	movq	%rsp, %rbp
	.cfi_def_cfa_register 6
	subq	$16, %rsp
	movq	yy_buffer_stack(%rip), %rax
	testq	%rax, %rax
	jne	.L160
	movl	$1, -4(%rbp)
	movl	-4(%rbp), %eax
	cltq
	salq	$3, %rax
	movq	%rax, %rdi
	call	yyalloc
	movq	%rax, yy_buffer_stack(%rip)
	movq	yy_buffer_stack(%rip), %rax
	testq	%rax, %rax
	jne	.L161
	leaq	.LC13(%rip), %rdi
	call	yy_fatal_error
.L161:
	movl	-4(%rbp), %eax
	cltq
	leaq	0(,%rax,8), %rdx
	movq	yy_buffer_stack(%rip), %rax
	movl	$0, %esi
	movq	%rax, %rdi
	call	memset@PLT
	movl	-4(%rbp), %eax
	cltq
	movq	%rax, yy_buffer_stack_max(%rip)
	movq	$0, yy_buffer_stack_top(%rip)
	jmp	.L159
.L160:
	movq	yy_buffer_stack_max(%rip), %rax
	leaq	-1(%rax), %rdx
	movq	yy_buffer_stack_top(%rip), %rax
	cmpq	%rax, %rdx
	ja	.L159
	movl	$8, -8(%rbp)
	movq	yy_buffer_stack_max(%rip), %rax
	movl	%eax, %edx
	movl	-8(%rbp), %eax
	addl	%edx, %eax
	movl	%eax, -4(%rbp)
	movl	-4(%rbp), %eax
	cltq
	leaq	0(,%rax,8), %rdx
	movq	yy_buffer_stack(%rip), %rax
	movq	%rdx, %rsi
	movq	%rax, %rdi
	call	yyrealloc
	movq	%rax, yy_buffer_stack(%rip)
	movq	yy_buffer_stack(%rip), %rax
	testq	%rax, %rax
	jne	.L163
	leaq	.LC13(%rip), %rdi
	call	yy_fatal_error
.L163:
	movl	-8(%rbp), %eax
	cltq
	leaq	0(,%rax,8), %rdx
	movq	yy_buffer_stack(%rip), %rax
	movq	yy_buffer_stack_max(%rip), %rcx
	salq	$3, %rcx
	addq	%rcx, %rax
	movl	$0, %esi
	movq	%rax, %rdi
	call	memset@PLT
	movl	-4(%rbp), %eax
	cltq
	movq	%rax, yy_buffer_stack_max(%rip)
.L159:
	leave
	.cfi_def_cfa 7, 8
	ret
	.cfi_endproc
.LFE20:
	.size	yyensure_buffer_stack, .-yyensure_buffer_stack
	.section	.rodata
	.align 8
.LC14:
	.string	"out of dynamic memory in yy_scan_buffer()"
	.text
	.globl	yy_scan_buffer
	.type	yy_scan_buffer, @function
yy_scan_buffer:
.LFB21:
	.cfi_startproc
	pushq	%rbp
	.cfi_def_cfa_offset 16
	.cfi_offset 6, -16
	movq	%rsp, %rbp
	.cfi_def_cfa_register 6
	subq	$32, %rsp
	movq	%rdi, -24(%rbp)
	movq	%rsi, -32(%rbp)
	cmpq	$1, -32(%rbp)
	jbe	.L165
	movq	-32(%rbp), %rax
	leaq	-2(%rax), %rdx
	movq	-24(%rbp), %rax
	addq	%rdx, %rax
	movzbl	(%rax), %eax
	testb	%al, %al
	jne	.L165
	movq	-32(%rbp), %rax
	leaq	-1(%rax), %rdx
	movq	-24(%rbp), %rax
	addq	%rdx, %rax
	movzbl	(%rax), %eax
	testb	%al, %al
	je	.L166
.L165:
	movl	$0, %eax
	jmp	.L167
.L166:
	movl	$64, %edi
	call	yyalloc
	movq	%rax, -8(%rbp)
	cmpq	$0, -8(%rbp)
	jne	.L168
	leaq	.LC14(%rip), %rdi
	call	yy_fatal_error
.L168:
	movq	-32(%rbp), %rax
	leaq	-2(%rax), %rdx
	movq	-8(%rbp), %rax
	movq	%rdx, 24(%rax)
	movq	-8(%rbp), %rax
	movq	-24(%rbp), %rdx
	movq	%rdx, 8(%rax)
	movq	-8(%rbp), %rax
	movq	8(%rax), %rdx
	movq	-8(%rbp), %rax
	movq	%rdx, 16(%rax)
	movq	-8(%rbp), %rax
	movl	$0, 36(%rax)
	movq	-8(%rbp), %rax
	movq	$0, (%rax)
	movq	-8(%rbp), %rax
	movq	24(%rax), %rax
	movl	%eax, %edx
	movq	-8(%rbp), %rax
	movl	%edx, 32(%rax)
	movq	-8(%rbp), %rax
	movl	$0, 40(%rax)
	movq	-8(%rbp), %rax
	movl	$1, 44(%rax)
	movq	-8(%rbp), %rax
	movl	$0, 56(%rax)
	movq	-8(%rbp), %rax
	movl	$0, 60(%rax)
	movq	-8(%rbp), %rax
	movq	%rax, %rdi
	call	yy_switch_to_buffer
	movq	-8(%rbp), %rax
.L167:
	leave
	.cfi_def_cfa 7, 8
	ret
	.cfi_endproc
.LFE21:
	.size	yy_scan_buffer, .-yy_scan_buffer
	.globl	yy_scan_string
	.type	yy_scan_string, @function
yy_scan_string:
.LFB22:
	.cfi_startproc
	pushq	%rbp
	.cfi_def_cfa_offset 16
	.cfi_offset 6, -16
	movq	%rsp, %rbp
	.cfi_def_cfa_register 6
	subq	$16, %rsp
	movq	%rdi, -8(%rbp)
	movq	-8(%rbp), %rax
	movq	%rax, %rdi
	call	strlen@PLT
	movl	%eax, %edx
	movq	-8(%rbp), %rax
	movl	%edx, %esi
	movq	%rax, %rdi
	call	yy_scan_bytes
	leave
	.cfi_def_cfa 7, 8
	ret
	.cfi_endproc
.LFE22:
	.size	yy_scan_string, .-yy_scan_string
	.section	.rodata
	.align 8
.LC15:
	.string	"out of dynamic memory in yy_scan_bytes()"
.LC16:
	.string	"bad buffer in yy_scan_bytes()"
	.text
	.globl	yy_scan_bytes
	.type	yy_scan_bytes, @function
yy_scan_bytes:
.LFB23:
	.cfi_startproc
	pushq	%rbp
	.cfi_def_cfa_offset 16
	.cfi_offset 6, -16
	movq	%rsp, %rbp
	.cfi_def_cfa_register 6
	subq	$48, %rsp
	movq	%rdi, -40(%rbp)
	movl	%esi, -44(%rbp)
	movl	-44(%rbp), %eax
	addl	$2, %eax
	cltq
	movq	%rax, -24(%rbp)
	movq	-24(%rbp), %rax
	movq	%rax, %rdi
	call	yyalloc
	movq	%rax, -16(%rbp)
	cmpq	$0, -16(%rbp)
	jne	.L172
	leaq	.LC15(%rip), %rdi
	call	yy_fatal_error
.L172:
	movl	$0, -28(%rbp)
	jmp	.L173
.L174:
	movl	-28(%rbp), %eax
	movslq	%eax, %rdx
	movq	-40(%rbp), %rax
	addq	%rdx, %rax
	movl	-28(%rbp), %edx
	movslq	%edx, %rcx
	movq	-16(%rbp), %rdx
	addq	%rcx, %rdx
	movzbl	(%rax), %eax
	movb	%al, (%rdx)
	addl	$1, -28(%rbp)
.L173:
	movl	-28(%rbp), %eax
	cmpl	-44(%rbp), %eax
	jl	.L174
	movl	-44(%rbp), %eax
	cltq
	leaq	1(%rax), %rdx
	movq	-16(%rbp), %rax
	addq	%rdx, %rax
	movb	$0, (%rax)
	movl	-44(%rbp), %edx
	movslq	%edx, %rcx
	movq	-16(%rbp), %rdx
	addq	%rcx, %rdx
	movzbl	(%rax), %eax
	movb	%al, (%rdx)
	movq	-24(%rbp), %rdx
	movq	-16(%rbp), %rax
	movq	%rdx, %rsi
	movq	%rax, %rdi
	call	yy_scan_buffer
	movq	%rax, -8(%rbp)
	cmpq	$0, -8(%rbp)
	jne	.L175
	leaq	.LC16(%rip), %rdi
	call	yy_fatal_error
.L175:
	movq	-8(%rbp), %rax
	movl	$1, 36(%rax)
	movq	-8(%rbp), %rax
	leave
	.cfi_def_cfa 7, 8
	ret
	.cfi_endproc
.LFE23:
	.size	yy_scan_bytes, .-yy_scan_bytes
	.section	.rodata
.LC17:
	.string	"%s\n"
	.text
	.type	yy_fatal_error, @function
yy_fatal_error:
.LFB24:
	.cfi_startproc
	pushq	%rbp
	.cfi_def_cfa_offset 16
	.cfi_offset 6, -16
	movq	%rsp, %rbp
	.cfi_def_cfa_register 6
	subq	$16, %rsp
	movq	%rdi, -8(%rbp)
	movq	stderr(%rip), %rax
	movq	-8(%rbp), %rdx
	leaq	.LC17(%rip), %rsi
	movq	%rax, %rdi
	movl	$0, %eax
	call	fprintf@PLT
	movl	$2, %edi
	call	exit@PLT
	.cfi_endproc
.LFE24:
	.size	yy_fatal_error, .-yy_fatal_error
	.globl	yyget_lineno
	.type	yyget_lineno, @function
yyget_lineno:
.LFB25:
	.cfi_startproc
	pushq	%rbp
	.cfi_def_cfa_offset 16
	.cfi_offset 6, -16
	movq	%rsp, %rbp
	.cfi_def_cfa_register 6
	movl	yylineno(%rip), %eax
	popq	%rbp
	.cfi_def_cfa 7, 8
	ret
	.cfi_endproc
.LFE25:
	.size	yyget_lineno, .-yyget_lineno
	.globl	yyget_in
	.type	yyget_in, @function
yyget_in:
.LFB26:
	.cfi_startproc
	pushq	%rbp
	.cfi_def_cfa_offset 16
	.cfi_offset 6, -16
	movq	%rsp, %rbp
	.cfi_def_cfa_register 6
	movq	yyin(%rip), %rax
	popq	%rbp
	.cfi_def_cfa 7, 8
	ret
	.cfi_endproc
.LFE26:
	.size	yyget_in, .-yyget_in
	.globl	yyget_out
	.type	yyget_out, @function
yyget_out:
.LFB27:
	.cfi_startproc
	pushq	%rbp
	.cfi_def_cfa_offset 16
	.cfi_offset 6, -16
	movq	%rsp, %rbp
	.cfi_def_cfa_register 6
	movq	yyout(%rip), %rax
	popq	%rbp
	.cfi_def_cfa 7, 8
	ret
	.cfi_endproc
.LFE27:
	.size	yyget_out, .-yyget_out
	.globl	yyget_leng
	.type	yyget_leng, @function
yyget_leng:
.LFB28:
	.cfi_startproc
	pushq	%rbp
	.cfi_def_cfa_offset 16
	.cfi_offset 6, -16
	movq	%rsp, %rbp
	.cfi_def_cfa_register 6
	movl	yyleng(%rip), %eax
	popq	%rbp
	.cfi_def_cfa 7, 8
	ret
	.cfi_endproc
.LFE28:
	.size	yyget_leng, .-yyget_leng
	.globl	yyget_text
	.type	yyget_text, @function
yyget_text:
.LFB29:
	.cfi_startproc
	pushq	%rbp
	.cfi_def_cfa_offset 16
	.cfi_offset 6, -16
	movq	%rsp, %rbp
	.cfi_def_cfa_register 6
	movq	yytext(%rip), %rax
	popq	%rbp
	.cfi_def_cfa 7, 8
	ret
	.cfi_endproc
.LFE29:
	.size	yyget_text, .-yyget_text
	.globl	yyset_lineno
	.type	yyset_lineno, @function
yyset_lineno:
.LFB30:
	.cfi_startproc
	pushq	%rbp
	.cfi_def_cfa_offset 16
	.cfi_offset 6, -16
	movq	%rsp, %rbp
	.cfi_def_cfa_register 6
	movl	%edi, -4(%rbp)
	movl	-4(%rbp), %eax
	movl	%eax, yylineno(%rip)
	nop
	popq	%rbp
	.cfi_def_cfa 7, 8
	ret
	.cfi_endproc
.LFE30:
	.size	yyset_lineno, .-yyset_lineno
	.globl	yyset_in
	.type	yyset_in, @function
yyset_in:
.LFB31:
	.cfi_startproc
	pushq	%rbp
	.cfi_def_cfa_offset 16
	.cfi_offset 6, -16
	movq	%rsp, %rbp
	.cfi_def_cfa_register 6
	movq	%rdi, -8(%rbp)
	movq	-8(%rbp), %rax
	movq	%rax, yyin(%rip)
	nop
	popq	%rbp
	.cfi_def_cfa 7, 8
	ret
	.cfi_endproc
.LFE31:
	.size	yyset_in, .-yyset_in
	.globl	yyset_out
	.type	yyset_out, @function
yyset_out:
.LFB32:
	.cfi_startproc
	pushq	%rbp
	.cfi_def_cfa_offset 16
	.cfi_offset 6, -16
	movq	%rsp, %rbp
	.cfi_def_cfa_register 6
	movq	%rdi, -8(%rbp)
	movq	-8(%rbp), %rax
	movq	%rax, yyout(%rip)
	nop
	popq	%rbp
	.cfi_def_cfa 7, 8
	ret
	.cfi_endproc
.LFE32:
	.size	yyset_out, .-yyset_out
	.globl	yyget_debug
	.type	yyget_debug, @function
yyget_debug:
.LFB33:
	.cfi_startproc
	pushq	%rbp
	.cfi_def_cfa_offset 16
	.cfi_offset 6, -16
	movq	%rsp, %rbp
	.cfi_def_cfa_register 6
	movl	yy_flex_debug(%rip), %eax
	popq	%rbp
	.cfi_def_cfa 7, 8
	ret
	.cfi_endproc
.LFE33:
	.size	yyget_debug, .-yyget_debug
	.globl	yyset_debug
	.type	yyset_debug, @function
yyset_debug:
.LFB34:
	.cfi_startproc
	pushq	%rbp
	.cfi_def_cfa_offset 16
	.cfi_offset 6, -16
	movq	%rsp, %rbp
	.cfi_def_cfa_register 6
	movl	%edi, -4(%rbp)
	movl	-4(%rbp), %eax
	movl	%eax, yy_flex_debug(%rip)
	nop
	popq	%rbp
	.cfi_def_cfa 7, 8
	ret
	.cfi_endproc
.LFE34:
	.size	yyset_debug, .-yyset_debug
	.type	yy_init_globals, @function
yy_init_globals:
.LFB35:
	.cfi_startproc
	pushq	%rbp
	.cfi_def_cfa_offset 16
	.cfi_offset 6, -16
	movq	%rsp, %rbp
	.cfi_def_cfa_register 6
	movq	$0, yy_buffer_stack(%rip)
	movq	$0, yy_buffer_stack_top(%rip)
	movq	$0, yy_buffer_stack_max(%rip)
	movq	$0, yy_c_buf_p(%rip)
	movl	$0, yy_init(%rip)
	movl	$0, yy_start(%rip)
	movq	$0, yyin(%rip)
	movq	$0, yyout(%rip)
	movl	$0, %eax
	popq	%rbp
	.cfi_def_cfa 7, 8
	ret
	.cfi_endproc
.LFE35:
	.size	yy_init_globals, .-yy_init_globals
	.globl	yylex_destroy
	.type	yylex_destroy, @function
yylex_destroy:
.LFB36:
	.cfi_startproc
	pushq	%rbp
	.cfi_def_cfa_offset 16
	.cfi_offset 6, -16
	movq	%rsp, %rbp
	.cfi_def_cfa_register 6
	jmp	.L197
.L201:
	movq	yy_buffer_stack(%rip), %rax
	testq	%rax, %rax
	je	.L198
	movq	yy_buffer_stack(%rip), %rax
	movq	yy_buffer_stack_top(%rip), %rdx
	salq	$3, %rdx
	addq	%rdx, %rax
	movq	(%rax), %rax
	jmp	.L199
.L198:
	movl	$0, %eax
.L199:
	movq	%rax, %rdi
	call	yy_delete_buffer
	movq	yy_buffer_stack(%rip), %rax
	movq	yy_buffer_stack_top(%rip), %rdx
	salq	$3, %rdx
	addq	%rdx, %rax
	movq	$0, (%rax)
	call	yypop_buffer_state
.L197:
	movq	yy_buffer_stack(%rip), %rax
	testq	%rax, %rax
	je	.L200
	movq	yy_buffer_stack(%rip), %rax
	movq	yy_buffer_stack_top(%rip), %rdx
	salq	$3, %rdx
	addq	%rdx, %rax
	movq	(%rax), %rax
	testq	%rax, %rax
	jne	.L201
.L200:
	movq	yy_buffer_stack(%rip), %rax
	movq	%rax, %rdi
	call	yyfree
	movq	$0, yy_buffer_stack(%rip)
	call	yy_init_globals
	movl	$0, %eax
	popq	%rbp
	.cfi_def_cfa 7, 8
	ret
	.cfi_endproc
.LFE36:
	.size	yylex_destroy, .-yylex_destroy
	.globl	yyalloc
	.type	yyalloc, @function
yyalloc:
.LFB37:
	.cfi_startproc
	pushq	%rbp
	.cfi_def_cfa_offset 16
	.cfi_offset 6, -16
	movq	%rsp, %rbp
	.cfi_def_cfa_register 6
	subq	$16, %rsp
	movq	%rdi, -8(%rbp)
	movq	-8(%rbp), %rax
	movq	%rax, %rdi
	call	malloc@PLT
	leave
	.cfi_def_cfa 7, 8
	ret
	.cfi_endproc
.LFE37:
	.size	yyalloc, .-yyalloc
	.globl	yyrealloc
	.type	yyrealloc, @function
yyrealloc:
.LFB38:
	.cfi_startproc
	pushq	%rbp
	.cfi_def_cfa_offset 16
	.cfi_offset 6, -16
	movq	%rsp, %rbp
	.cfi_def_cfa_register 6
	subq	$16, %rsp
	movq	%rdi, -8(%rbp)
	movq	%rsi, -16(%rbp)
	movq	-16(%rbp), %rdx
	movq	-8(%rbp), %rax
	movq	%rdx, %rsi
	movq	%rax, %rdi
	call	realloc@PLT
	leave
	.cfi_def_cfa 7, 8
	ret
	.cfi_endproc
.LFE38:
	.size	yyrealloc, .-yyrealloc
	.globl	yyfree
	.type	yyfree, @function
yyfree:
.LFB39:
	.cfi_startproc
	pushq	%rbp
	.cfi_def_cfa_offset 16
	.cfi_offset 6, -16
	movq	%rsp, %rbp
	.cfi_def_cfa_register 6
	subq	$16, %rsp
	movq	%rdi, -8(%rbp)
	movq	-8(%rbp), %rax
	movq	%rax, %rdi
	call	free@PLT
	nop
	leave
	.cfi_def_cfa 7, 8
	ret
	.cfi_endproc
.LFE39:
	.size	yyfree, .-yyfree
	.section	.rodata
.LC18:
	.string	"r"
	.text
	.globl	main
	.type	main, @function
main:
.LFB40:
	.cfi_startproc
	pushq	%rbp
	.cfi_def_cfa_offset 16
	.cfi_offset 6, -16
	movq	%rsp, %rbp
	.cfi_def_cfa_register 6
	subq	$16, %rsp
	movl	%edi, -4(%rbp)
	movq	%rsi, -16(%rbp)
	addq	$8, -16(%rbp)
	subl	$1, -4(%rbp)
	cmpl	$0, -4(%rbp)
	jle	.L209
	movq	-16(%rbp), %rax
	movq	(%rax), %rax
	leaq	.LC18(%rip), %rsi
	movq	%rax, %rdi
	call	fopen@PLT
	movq	%rax, yyin(%rip)
	jmp	.L210
.L209:
	movq	stdin(%rip), %rax
	movq	%rax, yyin(%rip)
.L210:
	call	yylex
	leave
	.cfi_def_cfa 7, 8
	ret
	.cfi_endproc
.LFE40:
	.size	main, .-main
	.ident	"GCC: (Ubuntu 7.4.0-1ubuntu1~18.04.1) 7.4.0"
	.section	.note.GNU-stack,"",@progbits
